target datalayout = "e-m:e-p270:32:32-p271:32:32-p272:64:64-i64:64-i128:128-f80:128-n8:16:32:64-S128"
target triple = "x86_64-pc-linux-gnu"

%"class.duckdb::ColumnWriter.base" = type <{ ptr, ptr, i64, %"class.duckdb::vector.15", i64, i64, i8 }>
%"class.duckdb::vector.15" = type { %"class.std::vector.16" }
%"class.std::vector.16" = type { %"struct.std::_Vector_base.17" }
%"struct.std::_Vector_base.17" = type { %"struct.std::_Vector_base<std::__cxx11::basic_string<char>, std::allocator<std::__cxx11::basic_string<char>>>::_Vector_impl" }
%"struct.std::_Vector_base<std::__cxx11::basic_string<char>, std::allocator<std::__cxx11::basic_string<char>>>::_Vector_impl" = type { %"struct.std::_Vector_base<std::__cxx11::basic_string<char>, std::allocator<std::__cxx11::basic_string<char>>>::_Vector_impl_data" }
%"struct.std::_Vector_base<std::__cxx11::basic_string<char>, std::allocator<std::__cxx11::basic_string<char>>>::_Vector_impl_data" = type { ptr, ptr, ptr }
%"struct.duckdb::LogicalType" = type { i8, i8, %"class.duckdb::shared_ptr" }
%"class.duckdb::shared_ptr" = type { %"class.std::shared_ptr" }
%"class.std::shared_ptr" = type { %"class.std::__shared_ptr" }
%"class.std::__shared_ptr" = type { ptr, %"class.std::__shared_count" }
%"class.std::__shared_count" = type { ptr }
%"class.duckdb::ColumnWriterPageState" = type { ptr }
%"class.duckdb::EnumColumnWriter" = type <{ %"class.duckdb::PrimitiveColumnWriter.base", [7 x i8], %"struct.duckdb::LogicalType", i32, [4 x i8] }>
%"class.duckdb::PrimitiveColumnWriter.base" = type { %"class.duckdb::ColumnWriter.base" }
%"class.duckdb::EnumWriterPageState" = type <{ %"class.duckdb::ColumnWriterPageState", %"class.duckdb::RleBpEncoder", i8, [7 x i8] }>
%"class.duckdb::RleBpEncoder" = type { i32, i32, i32, i64, [32 x i32], [32 x i32], i64 }

; Function Attrs: inlinehint mustprogress uwtable
define linkonce_odr void @_ZN6duckdb20BitpackingPrimitives9PackGroupIjEEvPhPT_h(ptr noundef %0, ptr noundef %1, i8 noundef zeroext %2) #4 comdat align 2 {
  %4 = alloca ptr, align 8
  %5 = alloca ptr, align 8
  %6 = alloca i8, align 1
  store ptr %0, ptr %4, align 8, !tbaa !161
  store ptr %1, ptr %5, align 8, !tbaa !198
  store i8 %2, ptr %6, align 1, !tbaa !140
  %7 = load ptr, ptr %5, align 8, !tbaa !198
  %8 = load ptr, ptr %4, align 8, !tbaa !161
  %9 = load i8, ptr %6, align 1, !tbaa !140
  %10 = zext i8 %9 to i32
  call void @_ZN18duckdb_fastpforlib8fastpackEPKjPjj(ptr noundef %7, ptr noundef %8, i32 noundef %10)
  ret void
}

; Function Attrs: inlinehint mustprogress uwtable
define linkonce_odr void @_ZN6duckdb20BitpackingPrimitives10PackBufferIjLb1EEEvPhPT_mh(ptr noundef %0, ptr noundef %1, i64 noundef %2, i8 noundef zeroext %3) #4 comdat align 2 {
  %5 = alloca ptr, align 8
  %6 = alloca ptr, align 8
  %7 = alloca i64, align 8
  %8 = alloca i8, align 1
  %9 = alloca i64, align 8
  store ptr %0, ptr %5, align 8, !tbaa !161
  store ptr %1, ptr %6, align 8, !tbaa !198
  store i64 %2, ptr %7, align 8, !tbaa !12
  store i8 %3, ptr %8, align 1, !tbaa !140
  call void @llvm.lifetime.start.p0(i64 8, ptr %9) #19
  store i64 0, ptr %9, align 8, !tbaa !12
  br label %10

10:                                               ; preds = %27, %4
  %11 = load i64, ptr %9, align 8, !tbaa !12
  %12 = load i64, ptr %7, align 8, !tbaa !12
  %13 = icmp ult i64 %11, %12
  br i1 %13, label %15, label %14

14:                                               ; preds = %10
  call void @llvm.lifetime.end.p0(i64 8, ptr %9) #19
  br label %30

15:                                               ; preds = %10
  %16 = load ptr, ptr %5, align 8, !tbaa !161
  %17 = load i64, ptr %9, align 8, !tbaa !12
  %18 = load i8, ptr %8, align 1, !tbaa !140
  %19 = zext i8 %18 to i64
  %20 = mul i64 %17, %19
  %21 = udiv i64 %20, 8
  %22 = getelementptr inbounds nuw i8, ptr %16, i64 %21
  %23 = load ptr, ptr %6, align 8, !tbaa !198
  %24 = load i64, ptr %9, align 8, !tbaa !12
  %25 = getelementptr inbounds nuw i32, ptr %23, i64 %24
  %26 = load i8, ptr %8, align 1, !tbaa !140
  call void @_ZN6duckdb20BitpackingPrimitives9PackGroupIjEEvPhPT_h(ptr noundef %22, ptr noundef %25, i8 noundef zeroext %26)
  br label %27

27:                                               ; preds = %15
  %28 = load i64, ptr %9, align 8, !tbaa !12
  %29 = add i64 %28, 32
  store i64 %29, ptr %9, align 8, !tbaa !12
  br label %10, !llvm.loop !768

30:                                               ; preds = %14
  ret void
}

; Function Attrs: mustprogress uwtable
define linkonce_odr void @_ZN6duckdb18ParquetDecodeUtils14BitPackAlignedIjEEvPT_Phmh(ptr noundef %0, ptr noundef %1, i64 noundef %2, i8 noundef zeroext %3) #0 comdat align 2 {
  %5 = alloca ptr, align 8
  %6 = alloca ptr, align 8
  %7 = alloca i64, align 8
  %8 = alloca i8, align 1
  store ptr %0, ptr %5, align 8, !tbaa !198
  store ptr %1, ptr %6, align 8, !tbaa !161
  store i64 %2, ptr %7, align 8, !tbaa !12
  store i8 %3, ptr %8, align 1, !tbaa !140
  %9 = load ptr, ptr %6, align 8, !tbaa !161
  %10 = load ptr, ptr %5, align 8, !tbaa !198
  %11 = load i64, ptr %7, align 8, !tbaa !12
  %12 = load i8, ptr %8, align 1, !tbaa !140
  call void @_ZN6duckdb20BitpackingPrimitives10PackBufferIjLb1EEEvPhPT_mh(ptr noundef %9, ptr noundef %10, i64 noundef %11, i8 noundef zeroext %12)
  ret void
}

; Function Attrs: mustprogress nounwind uwtable
define linkonce_odr noundef ptr @_ZN6duckdb13data_ptr_castIjEEPhPT_(ptr noundef %0) #5 comdat {
  %2 = alloca ptr, align 8
  store ptr %0, ptr %2, align 8, !tbaa !198
  %3 = load ptr, ptr %2, align 8, !tbaa !198
  ret ptr %3
}

; Function Attrs: mustprogress uwtable
define linkonce_odr void @_ZN6duckdb18ParquetDecodeUtils12VarintEncodeImEEvT_RNS_11WriteStreamE(i64 noundef %0, ptr noundef nonnull align 8 dereferenceable(8) %1) #0 comdat align 2 {
  %3 = alloca i64, align 8
  %4 = alloca ptr, align 8
  %5 = alloca i8, align 1
  store i64 %0, ptr %3, align 8, !tbaa !12
  store ptr %1, ptr %4, align 8, !tbaa !120
  br label %6

6:                                                ; preds = %22, %2
  call void @llvm.lifetime.start.p0(i64 1, ptr %5) #19
  %7 = load i64, ptr %3, align 8, !tbaa !12
  %8 = and i64 %7, 127
  %9 = trunc i64 %8 to i8
  store i8 %9, ptr %5, align 1, !tbaa !140
  %10 = load i64, ptr %3, align 8, !tbaa !12
  %11 = lshr i64 %10, 7
  store i64 %11, ptr %3, align 8, !tbaa !12
  %12 = load i64, ptr %3, align 8, !tbaa !12
  %13 = icmp ne i64 %12, 0
  br i1 %13, label %14, label %19

14:                                               ; preds = %6
  %15 = load i8, ptr %5, align 1, !tbaa !140
  %16 = zext i8 %15 to i32
  %17 = or i32 %16, 128
  %18 = trunc i32 %17 to i8
  store i8 %18, ptr %5, align 1, !tbaa !140
  br label %19

19:                                               ; preds = %14, %6
  %20 = load ptr, ptr %4, align 8, !tbaa !120
  %21 = load i8, ptr %5, align 1, !tbaa !140
  call void @_ZN6duckdb11WriteStream5WriteIhEEvT_(ptr noundef nonnull align 8 dereferenceable(8) %20, i8 noundef zeroext %21)
  call void @llvm.lifetime.end.p0(i64 1, ptr %5) #19
  br label %22

22:                                               ; preds = %19
  %23 = load i64, ptr %3, align 8, !tbaa !12
  %24 = icmp ne i64 %23, 0
  br i1 %24, label %6, label %25, !llvm.loop !767

25:                                               ; preds = %22
  ret void
}

; Function Attrs: mustprogress uwtable
define linkonce_odr void @_ZN6duckdb12RleBpEncoder19WriteCurrentBlockBPERNS_11WriteStreamE(ptr noundef nonnull align 8 dereferenceable(288) %0, ptr noundef nonnull align 8 dereferenceable(8) %1) #0 comdat align 2 {
  %3 = alloca ptr, align 8
  %4 = alloca ptr, align 8
  store ptr %0, ptr %3, align 8, !tbaa !210
  store ptr %1, ptr %4, align 8, !tbaa !120
  %5 = load ptr, ptr %3, align 8
  %6 = load ptr, ptr %4, align 8, !tbaa !120
  call void @_ZN6duckdb18ParquetDecodeUtils12VarintEncodeImEEvT_RNS_11WriteStreamE(i64 noundef 9, ptr noundef nonnull align 8 dereferenceable(8) %6)
  %7 = getelementptr inbounds nuw %"class.duckdb::RleBpEncoder", ptr %5, i32 0, i32 4
  %8 = getelementptr inbounds [32 x i32], ptr %7, i64 0, i64 0
  %9 = getelementptr inbounds nuw %"class.duckdb::RleBpEncoder", ptr %5, i32 0, i32 5
  %10 = getelementptr inbounds [32 x i32], ptr %9, i64 0, i64 0
  %11 = call noundef ptr @_ZN6duckdb13data_ptr_castIjEEPhPT_(ptr noundef %10)
  %12 = getelementptr inbounds nuw %"class.duckdb::RleBpEncoder", ptr %5, i32 0, i32 0
  %13 = load i32, ptr %12, align 8, !tbaa !540
  %14 = trunc i32 %13 to i8
  call void @_ZN6duckdb18ParquetDecodeUtils14BitPackAlignedIjEEvPT_Phmh(ptr noundef %8, ptr noundef %11, i64 noundef 32, i8 noundef zeroext %14)
  %15 = load ptr, ptr %4, align 8, !tbaa !120
  %16 = getelementptr inbounds nuw %"class.duckdb::RleBpEncoder", ptr %5, i32 0, i32 5
  %17 = getelementptr inbounds [32 x i32], ptr %16, i64 0, i64 0
  %18 = call noundef ptr @_ZN6duckdb13data_ptr_castIjEEPhPT_(ptr noundef %17)
  %19 = getelementptr inbounds nuw %"class.duckdb::RleBpEncoder", ptr %5, i32 0, i32 0
  %20 = load i32, ptr %19, align 8, !tbaa !540
  %21 = zext i32 %20 to i64
  %22 = mul i64 32, %21
  %23 = udiv i64 %22, 8
  %24 = load ptr, ptr %15, align 8, !tbaa !16
  %25 = getelementptr inbounds ptr, ptr %24, i64 0
  %26 = load ptr, ptr %25, align 8
  call void %26(ptr noundef nonnull align 8 dereferenceable(8) %15, ptr noundef %18, i64 noundef %23)
  %27 = getelementptr inbounds nuw %"class.duckdb::RleBpEncoder", ptr %5, i32 0, i32 6
  store i64 0, ptr %27, align 8, !tbaa !543
  ret void
}

; Function Attrs: mustprogress uwtable
define linkonce_odr void @_ZN6duckdb12RleBpEncoder8WriteRunERNS_11WriteStreamE(ptr noundef nonnull align 8 dereferenceable(288) %0, ptr noundef nonnull align 8 dereferenceable(8) %1) #0 comdat align 2 {
  %3 = alloca ptr, align 8
  %4 = alloca ptr, align 8
  store ptr %0, ptr %3, align 8, !tbaa !210
  store ptr %1, ptr %4, align 8, !tbaa !120
  %5 = load ptr, ptr %3, align 8
  %6 = getelementptr inbounds nuw %"class.duckdb::RleBpEncoder", ptr %5, i32 0, i32 3
  %7 = load i64, ptr %6, align 8, !tbaa !542
  %8 = icmp ne i64 %7, 0
  br i1 %8, label %9, label %11

9:                                                ; preds = %2
  %10 = load ptr, ptr %4, align 8, !tbaa !120
  call void @_ZN6duckdb12RleBpEncoder20WriteCurrentBlockRLEERNS_11WriteStreamE(ptr noundef nonnull align 8 dereferenceable(288) %5, ptr noundef nonnull align 8 dereferenceable(8) %10)
  br label %13

11:                                               ; preds = %2
  %12 = load ptr, ptr %4, align 8, !tbaa !120
  call void @_ZN6duckdb12RleBpEncoder19WriteCurrentBlockBPERNS_11WriteStreamE(ptr noundef nonnull align 8 dereferenceable(288) %5, ptr noundef nonnull align 8 dereferenceable(8) %12)
  br label %13

13:                                               ; preds = %11, %9
  ret void
}

; Function Attrs: mustprogress nounwind uwtable
define linkonce_odr noundef ptr @_ZN6duckdb19const_data_ptr_castIhEEPKhPKT_(ptr noundef %0) #5 comdat {
  %2 = alloca ptr, align 8
  store ptr %0, ptr %2, align 8, !tbaa !161
  %3 = load ptr, ptr %2, align 8, !tbaa !161
  ret ptr %3
}

; Function Attrs: mustprogress nounwind uwtable
define linkonce_odr void @_ZN6duckdb16DynamicCastCheckINS_19EnumWriterPageStateENS_21ColumnWriterPageStateEEEvPKT0_(ptr noundef %0) #5 comdat {
  %2 = alloca ptr, align 8
  store ptr %0, ptr %2, align 8, !tbaa !124
  ret void
}

; Function Attrs: mustprogress uwtable
define linkonce_odr void @_ZN6duckdb12RleBpEncoder11FinishWriteERNS_11WriteStreamE(ptr noundef nonnull align 8 dereferenceable(288) %0, ptr noundef nonnull align 8 dereferenceable(8) %1) #0 comdat align 2 {
  %3 = alloca ptr, align 8
  %4 = alloca ptr, align 8
  store ptr %0, ptr %3, align 8, !tbaa !210
  store ptr %1, ptr %4, align 8, !tbaa !120
  %5 = load ptr, ptr %3, align 8
  %6 = load ptr, ptr %4, align 8, !tbaa !120
  call void @_ZN6duckdb12RleBpEncoder8WriteRunERNS_11WriteStreamE(ptr noundef nonnull align 8 dereferenceable(288) %5, ptr noundef nonnull align 8 dereferenceable(8) %6)
  ret void
}

; Function Attrs: mustprogress uwtable
define linkonce_odr void @_ZN6duckdb11WriteStream5WriteIhEEvT_(ptr noundef nonnull align 8 dereferenceable(8) %0, i8 noundef zeroext %1) #0 comdat align 2 {
  %3 = alloca ptr, align 8
  %4 = alloca i8, align 1
  store ptr %0, ptr %3, align 8, !tbaa !120
  store i8 %1, ptr %4, align 1, !tbaa !140
  %5 = load ptr, ptr %3, align 8
  %6 = call noundef ptr @_ZN6duckdb19const_data_ptr_castIhEEPKhPKT_(ptr noundef %4)
  %7 = load ptr, ptr %5, align 8, !tbaa !16
  %8 = getelementptr inbounds ptr, ptr %7, i64 0
  %9 = load ptr, ptr %8, align 8
  call void %9(ptr noundef nonnull align 8 dereferenceable(8) %5, ptr noundef %6, i64 noundef 1)
  ret void
}

; Function Attrs: mustprogress uwtable
define linkonce_odr noundef nonnull align 8 dereferenceable(297) ptr @_ZN6duckdb21ColumnWriterPageState4CastINS_19EnumWriterPageStateEEERT_v(ptr noundef nonnull align 8 dereferenceable(8) %0) #0 comdat align 2 {
  %2 = alloca ptr, align 8
  store ptr %0, ptr %2, align 8, !tbaa !124
  %3 = load ptr, ptr %2, align 8
  call void @_ZN6duckdb16DynamicCastCheckINS_19EnumWriterPageStateENS_21ColumnWriterPageStateEEEvPKT0_(ptr noundef %3)
  ret ptr %3
}

; Function Attrs: mustprogress uwtable
define void @_ZN6duckdb16EnumColumnWriter14FlushPageStateERNS_11WriteStreamEPNS_21ColumnWriterPageStateE(ptr noundef nonnull align 8 dereferenceable(100) %0, ptr noundef nonnull align 8 dereferenceable(8) %1, ptr noundef %2) unnamed_addr #0 align 2 {
  %4 = alloca ptr, align 8
  %5 = alloca ptr, align 8
  %6 = alloca ptr, align 8
  %7 = alloca ptr, align 8
  %8 = alloca i32, align 4
  store ptr %0, ptr %4, align 8, !tbaa !168
  store ptr %1, ptr %5, align 8, !tbaa !120
  store ptr %2, ptr %6, align 8, !tbaa !124
  %9 = load ptr, ptr %4, align 8
  call void @llvm.lifetime.start.p0(i64 8, ptr %7) #19
  %10 = load ptr, ptr %6, align 8, !tbaa !124
  %11 = call noundef nonnull align 8 dereferenceable(297) ptr @_ZN6duckdb21ColumnWriterPageState4CastINS_19EnumWriterPageStateEEERT_v(ptr noundef nonnull align 8 dereferenceable(8) %10)
  store ptr %11, ptr %7, align 8, !tbaa !189
  %12 = load ptr, ptr %7, align 8, !tbaa !189
  %13 = getelementptr inbounds nuw %"class.duckdb::EnumWriterPageState", ptr %12, i32 0, i32 2
  %14 = load i8, ptr %13, align 8, !tbaa !192, !range !89, !noundef !90
  %15 = trunc i8 %14 to i1
  br i1 %15, label %21, label %16

16:                                               ; preds = %3
  %17 = load ptr, ptr %5, align 8, !tbaa !120
  %18 = getelementptr inbounds nuw %"class.duckdb::EnumColumnWriter", ptr %9, i32 0, i32 3
  %19 = load i32, ptr %18, align 8, !tbaa !172
  %20 = trunc i32 %19 to i8
  call void @_ZN6duckdb11WriteStream5WriteIhEEvT_(ptr noundef nonnull align 8 dereferenceable(8) %17, i8 noundef zeroext %20)
  store i32 1, ptr %8, align 4
  br label %25

21:                                               ; preds = %3
  %22 = load ptr, ptr %7, align 8, !tbaa !189
  %23 = getelementptr inbounds nuw %"class.duckdb::EnumWriterPageState", ptr %22, i32 0, i32 1
  %24 = load ptr, ptr %5, align 8, !tbaa !120
  call void @_ZN6duckdb12RleBpEncoder11FinishWriteERNS_11WriteStreamE(ptr noundef nonnull align 8 dereferenceable(288) %23, ptr noundef nonnull align 8 dereferenceable(8) %24)
  store i32 0, ptr %8, align 4
  br label %25

25:                                               ; preds = %21, %16
  call void @llvm.lifetime.end.p0(i64 8, ptr %7) #19
  %26 = load i32, ptr %8, align 4
  switch i32 %26, label %28 [
    i32 0, label %27
    i32 1, label %27
  ]

27:                                               ; preds = %25, %25
  ret void

28:                                               ; preds = %25
  unreachable
}