; Function Attrs: mustprogress uwtable
define void @_ZN6duckdb16EnumColumnWriter14FlushPageStateERNS_11WriteStreamEPNS_21ColumnWriterPageStateE(ptr noundef nonnull readonly align 8 captures(none) dereferenceable(100) %0, ptr noundef nonnull align 8 dereferenceable(8) %1, ptr noundef %2) unnamed_addr #0 align 2 {
  %4 = alloca i8, align 1
  %5 = alloca i8, align 1
  %6 = getelementptr inbounds nuw i8, ptr %2, i64 296
  %7 = load i8, ptr %6, align 8, !tbaa !146, !range !108, !noundef !109
  %8 = trunc nuw i8 %7 to i1
  br i1 %8, label %15, label %9

9:                                                ; preds = %3
  %10 = getelementptr inbounds nuw i8, ptr %0, i64 96
  %11 = load i32, ptr %10, align 8, !tbaa !135
  %12 = trunc i32 %11 to i8
  call void @llvm.lifetime.start.p0(i64 1, ptr nonnull %5)
  store i8 %12, ptr %5, align 1, !tbaa !115
  %13 = load ptr, ptr %1, align 8, !tbaa !3
  %14 = load ptr, ptr %13, align 8
  call void %14(ptr noundef nonnull align 8 dereferenceable(8) %1, ptr noundef nonnull %5, i64 noundef 1)
  call void @llvm.lifetime.end.p0(i64 1, ptr nonnull %5)
  br label %_ZN6duckdb12RleBpEncoder11FinishWriteERNS_11WriteStreamE.exit

15:                                               ; preds = %3
  %16 = getelementptr inbounds nuw i8, ptr %2, i64 8
  %17 = getelementptr inbounds nuw i8, ptr %2, i64 24
  %18 = load i64, ptr %17, align 8, !tbaa !149
  %.not.i.i = icmp eq i64 %18, 0
  br i1 %.not.i.i, label %20, label %19

19:                                               ; preds = %15
  tail call void @_ZN6duckdb12RleBpEncoder20WriteCurrentBlockRLEERNS_11WriteStreamE(ptr noundef nonnull align 8 dereferenceable(288) %16, ptr noundef nonnull align 8 dereferenceable(8) %1)
  br label %_ZN6duckdb12RleBpEncoder11FinishWriteERNS_11WriteStreamE.exit

20:                                               ; preds = %15
  call void @llvm.lifetime.start.p0(i64 1, ptr nonnull %4)
  store i8 9, ptr %4, align 1, !tbaa !115
  %21 = load ptr, ptr %1, align 8, !tbaa !3
  %22 = load ptr, ptr %21, align 8
  call void %22(ptr noundef nonnull align 8 dereferenceable(8) %1, ptr noundef nonnull %4, i64 noundef 1)
  call void @llvm.lifetime.end.p0(i64 1, ptr nonnull %4)
  %23 = getelementptr inbounds nuw i8, ptr %2, i64 32
  %24 = getelementptr inbounds nuw i8, ptr %2, i64 160
  %25 = load i32, ptr %16, align 8, !tbaa !158
  %26 = and i32 %25, 255
  call void @_ZN18duckdb_fastpforlib8fastpackEPKjPjj(ptr noundef nonnull %23, ptr noundef nonnull %24, i32 noundef %26)
  %27 = load i32, ptr %16, align 8, !tbaa !158
  %28 = zext i32 %27 to i64
  %29 = shl nuw nsw i64 %28, 2
  %30 = load ptr, ptr %1, align 8, !tbaa !3
  %31 = load ptr, ptr %30, align 8
  call void %31(ptr noundef nonnull align 8 dereferenceable(8) %1, ptr noundef nonnull %24, i64 noundef %29)
  %32 = getelementptr inbounds nuw i8, ptr %2, i64 288
  store i64 0, ptr %32, align 8, !tbaa !150
  br label %_ZN6duckdb12RleBpEncoder11FinishWriteERNS_11WriteStreamE.exit

_ZN6duckdb12RleBpEncoder11FinishWriteERNS_11WriteStreamE.exit: ; preds = %20, %19, %9
  ret void
}